target datalayout = "e-m:e-p270:32:32-p271:32:32-p272:64:64-i64:64-i128:128-f80:128-n8:16:32:64-S128"
target triple = "x86_64-pc-linux-gnu"

%struct.ossl_param_st = type { ptr, i32, ptr, i64, i64 }

@.str.1 = private unnamed_addr constant [8 x i8] c"ssl3-ms\00", align 1

; Function Attrs: inlinehint nounwind uwtable
define internal i32 @ossl_param_is_empty(ptr noundef %0) #4 {
  %2 = alloca ptr, align 8
  store ptr %0, ptr %2, align 8, !tbaa !19
  %3 = load ptr, ptr %2, align 8, !tbaa !19
  %4 = icmp eq ptr %3, null
  br i1 %4, label %10, label %5

5:                                                ; preds = %1
  %6 = load ptr, ptr %2, align 8, !tbaa !19
  %7 = getelementptr inbounds nuw %struct.ossl_param_st, ptr %6, i32 0, i32 0
  %8 = load ptr, ptr %7, align 8, !tbaa !33
  %9 = icmp eq ptr %8, null
  br label %10

10:                                               ; preds = %5, %1
  %11 = phi i1 [ true, %1 ], [ %9, %5 ]
  %12 = zext i1 %11 to i32
  ret i32 %12
}

; Function Attrs: nounwind uwtable
define internal i32 @sha1_set_ctx_params(ptr noundef %0, ptr noundef %1) #0 {
  %3 = alloca i32, align 4
  %4 = alloca ptr, align 8
  %5 = alloca ptr, align 8
  %6 = alloca ptr, align 8
  %7 = alloca ptr, align 8
  %8 = alloca i32, align 4
  store ptr %0, ptr %4, align 8, !tbaa !3
  store ptr %1, ptr %5, align 8, !tbaa !19
  call void @llvm.lifetime.start.p0(i64 8, ptr %6) #5
  call void @llvm.lifetime.start.p0(i64 8, ptr %7) #5
  %9 = load ptr, ptr %4, align 8, !tbaa !3
  store ptr %9, ptr %7, align 8, !tbaa !7
  %10 = load ptr, ptr %7, align 8, !tbaa !7
  %11 = icmp eq ptr %10, null
  br i1 %11, label %12, label %13

12:                                               ; preds = %2
  store i32 0, ptr %3, align 4
  store i32 1, ptr %8, align 4
  br label %39

13:                                               ; preds = %2
  %14 = load ptr, ptr %5, align 8, !tbaa !19
  %15 = call i32 @ossl_param_is_empty(ptr noundef %14)
  %16 = icmp ne i32 %15, 0
  br i1 %16, label %17, label %18

17:                                               ; preds = %13
  store i32 1, ptr %3, align 4
  store i32 1, ptr %8, align 4
  br label %39

18:                                               ; preds = %13
  %19 = load ptr, ptr %5, align 8, !tbaa !19
  %20 = call ptr @OSSL_PARAM_locate_const(ptr noundef %19, ptr noundef @.str.1)
  store ptr %20, ptr %6, align 8, !tbaa !19
  %21 = load ptr, ptr %6, align 8, !tbaa !19
  %22 = icmp ne ptr %21, null
  br i1 %22, label %23, label %38

23:                                               ; preds = %18
  %24 = load ptr, ptr %6, align 8, !tbaa !19
  %25 = getelementptr inbounds nuw %struct.ossl_param_st, ptr %24, i32 0, i32 1
  %26 = load i32, ptr %25, align 8, !tbaa !21
  %27 = icmp eq i32 %26, 5
  br i1 %27, label %28, label %38

28:                                               ; preds = %23
  %29 = load ptr, ptr %7, align 8, !tbaa !7
  %30 = load ptr, ptr %6, align 8, !tbaa !19
  %31 = getelementptr inbounds nuw %struct.ossl_param_st, ptr %30, i32 0, i32 3
  %32 = load i64, ptr %31, align 8, !tbaa !23
  %33 = trunc i64 %32 to i32
  %34 = load ptr, ptr %6, align 8, !tbaa !19
  %35 = getelementptr inbounds nuw %struct.ossl_param_st, ptr %34, i32 0, i32 2
  %36 = load ptr, ptr %35, align 8, !tbaa !24
  %37 = call i32 @ossl_sha1_ctrl(ptr noundef %29, i32 noundef 29, i32 noundef %33, ptr noundef %36)
  store i32 %37, ptr %3, align 4
  store i32 1, ptr %8, align 4
  br label %39

38:                                               ; preds = %23, %18
  store i32 1, ptr %3, align 4
  store i32 1, ptr %8, align 4
  br label %39

39:                                               ; preds = %38, %28, %17, %12
  call void @llvm.lifetime.end.p0(i64 8, ptr %7) #5
  call void @llvm.lifetime.end.p0(i64 8, ptr %6) #5
  %40 = load i32, ptr %3, align 4
  ret i32 %40
}