; Function Attrs: nounwind uwtable
define internal i32 @sha1_set_ctx_params(ptr noundef %0, ptr noundef %1) #0 {
  %3 = icmp eq ptr %0, null
  br i1 %3, label %ossl_param_is_empty.exit.thread, label %4

4:                                                ; preds = %2
  %5 = icmp eq ptr %1, null
  br i1 %5, label %ossl_param_is_empty.exit.thread, label %ossl_param_is_empty.exit

ossl_param_is_empty.exit:                         ; preds = %4
  %6 = load ptr, ptr %1, align 8, !tbaa !11
  %.not = icmp eq ptr %6, null
  br i1 %.not, label %ossl_param_is_empty.exit.thread, label %7

7:                                                ; preds = %ossl_param_is_empty.exit
  %8 = tail call ptr @OSSL_PARAM_locate_const(ptr noundef nonnull %1, ptr noundef nonnull @.str.1) #5
  %.not11 = icmp eq ptr %8, null
  br i1 %.not11, label %ossl_param_is_empty.exit.thread, label %9

9:                                                ; preds = %7
  %10 = getelementptr inbounds nuw i8, ptr %8, i64 8
  %11 = load i32, ptr %10, align 8, !tbaa !15
  %12 = icmp eq i32 %11, 5
  br i1 %12, label %13, label %ossl_param_is_empty.exit.thread

13:                                               ; preds = %9
  %14 = getelementptr inbounds nuw i8, ptr %8, i64 24
  %15 = load i64, ptr %14, align 8, !tbaa !16
  %16 = trunc i64 %15 to i32
  %17 = getelementptr inbounds nuw i8, ptr %8, i64 16
  %18 = load ptr, ptr %17, align 8, !tbaa !17
  %19 = tail call i32 @ossl_sha1_ctrl(ptr noundef nonnull %0, i32 noundef 29, i32 noundef %16, ptr noundef %18) #5
  br label %ossl_param_is_empty.exit.thread

ossl_param_is_empty.exit.thread:                  ; preds = %4, %7, %9, %ossl_param_is_empty.exit, %2, %13
  %.0 = phi i32 [ %19, %13 ], [ 0, %2 ], [ 1, %ossl_param_is_empty.exit ], [ 1, %9 ], [ 1, %7 ], [ 1, %4 ]
  ret i32 %.0
}